; Function Attrs: nofree norecurse nosync nounwind memory(readwrite, inaccessiblemem: none) uwtable
define internal noundef i32 @filter_noinverse_flt_noclip(ptr readnone captures(none) %0, ptr noundef readonly captures(none) %1, i32 noundef %2, i32 noundef %3) #6 {
  %5 = getelementptr inbounds nuw i8, ptr %1, i64 8
  %6 = load ptr, ptr %5, align 8, !tbaa !47
  %7 = getelementptr inbounds nuw i8, ptr %1, i64 24
  %8 = load i32, ptr %7, align 8, !tbaa !48
  %9 = getelementptr inbounds nuw i8, ptr %1, i64 28
  %10 = load i32, ptr %9, align 4, !tbaa !50
  %11 = getelementptr inbounds nuw i8, ptr %1, i64 32
  %12 = load float, ptr %11, align 8, !tbaa !53
  %13 = mul nsw i32 %10, %2
  %14 = sdiv i32 %13, %3
  %15 = add nsw i32 %2, 1
  %16 = mul nsw i32 %10, %15
  %17 = sdiv i32 %16, %3
  %18 = load ptr, ptr %6, align 8, !tbaa !55
  %19 = icmp slt i32 %14, %17
  br i1 %19, label %.lr.ph47, label %._crit_edge48

.lr.ph47:                                         ; preds = %4
  %20 = getelementptr inbounds nuw i8, ptr %1, i64 16
  %21 = load ptr, ptr %20, align 8, !tbaa !46
  %22 = load ptr, ptr %1, align 8, !tbaa !44
  %23 = load ptr, ptr %21, align 8, !tbaa !55
  %24 = load ptr, ptr %22, align 8, !tbaa !55
  %25 = icmp sgt i32 %8, 0
  %26 = sext i32 %10 to i64
  br i1 %25, label %.lr.ph.us.preheader, label %._crit_edge48

.lr.ph.us.preheader:                              ; preds = %.lr.ph47
  %27 = sext i32 %14 to i64
  %wide.trip.count = sext i32 %17 to i64
  br label %.lr.ph.us

.lr.ph.us:                                        ; preds = %.lr.ph.us.preheader, %._crit_edge.us
  %indvars.iv = phi i64 [ %27, %.lr.ph.us.preheader ], [ %indvars.iv.next, %._crit_edge.us ]
  %28 = getelementptr inbounds float, ptr %18, i64 %indvars.iv
  %.pre = load float, ptr %28, align 4, !tbaa !58
  br label %29

29:                                               ; preds = %.lr.ph.us, %29
  %30 = phi float [ %.pre, %.lr.ph.us ], [ %32, %29 ]
  %.03944.us = phi i32 [ 0, %.lr.ph.us ], [ %38, %29 ]
  %.04043.us = phi ptr [ %24, %.lr.ph.us ], [ %36, %29 ]
  %.04142.us = phi ptr [ %23, %.lr.ph.us ], [ %37, %29 ]
  %31 = getelementptr inbounds float, ptr %.04142.us, i64 %indvars.iv
  %32 = load float, ptr %31, align 4, !tbaa !58
  %33 = fsub nsz float %32, %30
  %34 = tail call nsz float @llvm.fmuladd.f32(float %33, float %12, float %32)
  %35 = getelementptr inbounds float, ptr %.04043.us, i64 %indvars.iv
  store float %34, ptr %35, align 4, !tbaa !58
  store float %32, ptr %28, align 4, !tbaa !58
  %36 = getelementptr inbounds float, ptr %.04043.us, i64 %26
  %37 = getelementptr inbounds float, ptr %.04142.us, i64 %26
  %38 = add nuw nsw i32 %.03944.us, 1
  %exitcond.not = icmp eq i32 %38, %8
  br i1 %exitcond.not, label %._crit_edge.us, label %29, !llvm.loop !62

._crit_edge.us:                                   ; preds = %29
  %indvars.iv.next = add nsw i64 %indvars.iv, 1
  %exitcond51.not = icmp eq i64 %indvars.iv.next, %wide.trip.count
  br i1 %exitcond51.not, label %._crit_edge48, label %.lr.ph.us, !llvm.loop !63

._crit_edge48:                                    ; preds = %._crit_edge.us, %.lr.ph47, %4
  ret i32 0
}